#include <math.h>
#include <stdio.h>
#include <stdlib.h>
#include <string.h>



int main()
{
	
	int y,m,d,s,er;
	scanf("%d %d %d",&y,&m,&d);
	if(y%400==0)
	{
		er=29;
		switch(m)
		{
		case 1:s=d;printf("%d\n",s);break;
	    case 2:s=31+d;printf("%d\n",s);break;
	    case 3:s=31+er+d;printf("%d\n",s);break;
	    case 4:s=31*2+er+d;printf("%d\n",s);break;
	    case 5:s=31*2+er+30+d;printf("%d\n",s);break;
	    case 6:s=31*3+er+30+d;printf("%d\n",s);break;
	    case 7:s=31*3+er+30*2+d;printf("%d\n",s);break;
	    case 8:s=31*4+er+30*2+d;printf("%d\n",s);break;
	    case 9:s=31*5+er+30*2+d;printf("%d\n",s);break;
	    case 10:s=31*5+er+30*3+d;printf("%d\n",s);break;
	    case 11:s=31*6+er+30*3+d;printf("%d\n",s);break;
	    case 12:s=31*6+er+30*4+d;printf("%d\n",s);
		}
	}
	else
	{
		er=28;
		switch(m)
		{
		case 1:s=d;printf("%d\n",s);break;
	    case 2:s=31+d;printf("%d\n",s);break;
	    case 3:s=31+er+d;printf("%d\n",s);break;
	    case 4:s=31*2+er+d;printf("%d\n",s);break;
	    case 5:s=31*2+er+30+d;printf("%d\n",s);break;
	    case 6:s=31*3+er+30+d;printf("%d\n",s);break;
	    case 7:s=31*3+er+30*2+d;printf("%d\n",s);break;
	    case 8:s=31*4+er+30*2+d;printf("%d\n",s);break;
	    case 9:s=31*5+er+30*2+d;printf("%d\n",s);break;
	    case 10:s=31*5+er+30*3+d;printf("%d\n",s);break;
	    case 11:s=31*6+er+30*3+d;printf("%d\n",s);break;
	    case 12:s=31*6+er+30*4+d;printf("%d\n",s);
		}
	}
	return 0;
}